target datalayout = "e-m:e-p270:32:32-p271:32:32-p272:64:64-i64:64-i128:128-f80:128-n8:16:32:64-S128"
target triple = "x86_64-pc-linux-gnu"

%struct.DdManager = type { %struct.DdNode, ptr, ptr, ptr, ptr, ptr, ptr, ptr, i32, i32, double, double, double, i32, i32, i32, i32, i32, i32, ptr, ptr, %struct.DdSubtable, i32, i32, i32, i32, i32, i32, i32, double, i32, i32, i32, ptr, i64, double, i32, ptr, ptr, ptr, ptr, ptr, ptr, ptr, i32, ptr, ptr, ptr, ptr, ptr, ptr, i32, i32, i32, double, i32, i32, i32, i32, double, double, i32, i32, i32, i32, i32, i32, i32, i32, i32, ptr, ptr, i32, i32, i32, i32, i32, i32, ptr, ptr, ptr, ptr, ptr, ptr, ptr, ptr, i32, i64, i64, i64, i32, i64, i64, double, double, double, double, double, double, i32, ptr, ptr, i64 }
%struct.DdNode = type { i32, i32, ptr, %union.anon, i64 }
%union.anon = type { %struct.DdChildren }
%struct.DdChildren = type { ptr, ptr }
%struct.DdSubtable = type { ptr, i32, i32, i32, i32, i32, i32, i32, i32, i32, i32, i32 }

; Function Attrs: nounwind uwtable
define ptr @Cudd_bddIthVar(ptr noundef %0, i32 noundef %1) #0 {
  %3 = alloca ptr, align 8
  %4 = alloca ptr, align 8
  %5 = alloca i32, align 4
  %6 = alloca ptr, align 8
  store ptr %0, ptr %4, align 8
  store i32 %1, ptr %5, align 4
  %7 = load i32, ptr %5, align 4
  %8 = icmp uge i32 %7, 2147483646
  br i1 %8, label %9, label %10

9:                                                ; preds = %2
  store ptr null, ptr %3, align 8
  br label %39

10:                                               ; preds = %2
  %11 = load i32, ptr %5, align 4
  %12 = load ptr, ptr %4, align 8
  %13 = getelementptr inbounds %struct.DdManager, ptr %12, i32 0, i32 15
  %14 = load i32, ptr %13, align 8
  %15 = icmp slt i32 %11, %14
  br i1 %15, label %16, label %24

16:                                               ; preds = %10
  %17 = load ptr, ptr %4, align 8
  %18 = getelementptr inbounds %struct.DdManager, ptr %17, i32 0, i32 41
  %19 = load ptr, ptr %18, align 8
  %20 = load i32, ptr %5, align 4
  %21 = sext i32 %20 to i64
  %22 = getelementptr inbounds ptr, ptr %19, i64 %21
  %23 = load ptr, ptr %22, align 8
  store ptr %23, ptr %6, align 8
  br label %37

24:                                               ; preds = %10
  %25 = load ptr, ptr %4, align 8
  %26 = load i32, ptr %5, align 4
  %27 = load ptr, ptr %4, align 8
  %28 = getelementptr inbounds %struct.DdManager, ptr %27, i32 0, i32 1
  %29 = load ptr, ptr %28, align 8
  %30 = load ptr, ptr %4, align 8
  %31 = getelementptr inbounds %struct.DdManager, ptr %30, i32 0, i32 1
  %32 = load ptr, ptr %31, align 8
  %33 = ptrtoint ptr %32 to i64
  %34 = xor i64 %33, 1
  %35 = inttoptr i64 %34 to ptr
  %36 = call ptr @cuddUniqueInter(ptr noundef %25, i32 noundef %26, ptr noundef %29, ptr noundef %35)
  store ptr %36, ptr %6, align 8
  br label %37

37:                                               ; preds = %24, %16
  %38 = load ptr, ptr %6, align 8
  store ptr %38, ptr %3, align 8
  br label %39

39:                                               ; preds = %37, %9
  %40 = load ptr, ptr %3, align 8
  ret ptr %40
}