; Function Attrs: nounwind uwtable
define ptr @Cudd_bddIthVar(ptr noundef %0, i32 noundef %1) local_unnamed_addr #0 {
  %3 = icmp ugt i32 %1, 2147483645
  br i1 %3, label %21, label %4

4:                                                ; preds = %2
  %5 = getelementptr inbounds nuw i8, ptr %0, i64 136
  %6 = load i32, ptr %5, align 8
  %7 = icmp slt i32 %1, %6
  br i1 %7, label %8, label %14

8:                                                ; preds = %4
  %9 = getelementptr inbounds nuw i8, ptr %0, i64 344
  %10 = load ptr, ptr %9, align 8
  %11 = zext nneg i32 %1 to i64
  %12 = getelementptr inbounds nuw ptr, ptr %10, i64 %11
  %13 = load ptr, ptr %12, align 8
  br label %21

14:                                               ; preds = %4
  %15 = getelementptr inbounds nuw i8, ptr %0, i64 40
  %16 = load ptr, ptr %15, align 8
  %17 = ptrtoint ptr %16 to i64
  %18 = xor i64 %17, 1
  %19 = inttoptr i64 %18 to ptr
  %20 = tail call ptr @cuddUniqueInter(ptr noundef nonnull %0, i32 noundef %1, ptr noundef %16, ptr noundef %19) #20
  br label %21

21:                                               ; preds = %8, %14, %2
  %.010 = phi ptr [ null, %2 ], [ %13, %8 ], [ %20, %14 ]
  ret ptr %.010
}